; Function Attrs: mustprogress uwtable
define internal void @_ZN9grpc_core12_GLOBAL__N_16GrpcLb18ResetBackoffLockedEv(ptr noundef nonnull readonly align 8 captures(none) dereferenceable(696) %0) unnamed_addr #3 align 2 {
  %2 = getelementptr inbounds nuw i8, ptr %0, i64 80
  %3 = load ptr, ptr %2, align 8, !tbaa !232
  %.not = icmp eq ptr %3, null
  br i1 %.not, label %8, label %4

4:                                                ; preds = %1
  %5 = load ptr, ptr %3, align 8, !tbaa !6
  %6 = getelementptr inbounds nuw i8, ptr %5, i64 104
  %7 = load ptr, ptr %6, align 8
  tail call void %7(ptr noundef nonnull align 8 dereferenceable(144) %3)
  br label %8

8:                                                ; preds = %4, %1
  %9 = getelementptr inbounds nuw i8, ptr %0, i64 600
  %10 = load ptr, ptr %9, align 8, !tbaa !230
  %.not1 = icmp eq ptr %10, null
  br i1 %.not1, label %15, label %11

11:                                               ; preds = %8
  %12 = load ptr, ptr %10, align 8, !tbaa !6
  %13 = getelementptr inbounds nuw i8, ptr %12, i64 48
  %14 = load ptr, ptr %13, align 8
  tail call void %14(ptr noundef nonnull align 8 dereferenceable(56) %10)
  br label %15

15:                                               ; preds = %11, %8
  ret void
}